target datalayout = "e-m:e-p270:32:32-p271:32:32-p272:64:64-i64:64-i128:128-f80:128-n8:16:32:64-S128"
target triple = "x86_64-pc-linux-gnu"

%struct.asn1_string_st = type { i32, i32, ptr, i64 }

; Function Attrs: nounwind uwtable
define hidden i32 @i2c_ASN1_INTEGER(ptr noundef %0, ptr noundef %1) #0 {
  %3 = alloca i32, align 4
  %4 = alloca ptr, align 8
  %5 = alloca ptr, align 8
  %6 = alloca i32, align 4
  %7 = alloca i32, align 4
  %8 = alloca i32, align 4
  %9 = alloca i32, align 4
  %10 = alloca ptr, align 8
  %11 = alloca ptr, align 8
  %12 = alloca i8, align 1
  %13 = alloca i32, align 4
  store ptr %0, ptr %4, align 8, !tbaa !6
  store ptr %1, ptr %5, align 8, !tbaa !17
  call void @llvm.lifetime.start.p0(i64 4, ptr %6) #8
  store i32 0, ptr %6, align 4, !tbaa !16
  call void @llvm.lifetime.start.p0(i64 4, ptr %7) #8
  call void @llvm.lifetime.start.p0(i64 4, ptr %8) #8
  call void @llvm.lifetime.start.p0(i64 4, ptr %9) #8
  call void @llvm.lifetime.start.p0(i64 8, ptr %10) #8
  call void @llvm.lifetime.start.p0(i64 8, ptr %11) #8
  call void @llvm.lifetime.start.p0(i64 1, ptr %12) #8
  store i8 0, ptr %12, align 1, !tbaa !19
  %14 = load ptr, ptr %4, align 8, !tbaa !6
  %15 = icmp eq ptr %14, null
  br i1 %15, label %16, label %17

16:                                               ; preds = %2
  store i32 0, ptr %3, align 4
  store i32 1, ptr %13, align 4
  br label %195

17:                                               ; preds = %2
  %18 = load ptr, ptr %4, align 8, !tbaa !6
  %19 = getelementptr inbounds nuw %struct.asn1_string_st, ptr %18, i32 0, i32 1
  %20 = load i32, ptr %19, align 4, !tbaa !11
  %21 = and i32 %20, 256
  store i32 %21, ptr %9, align 4, !tbaa !16
  %22 = load ptr, ptr %4, align 8, !tbaa !6
  %23 = getelementptr inbounds nuw %struct.asn1_string_st, ptr %22, i32 0, i32 0
  %24 = load i32, ptr %23, align 8, !tbaa !20
  %25 = icmp eq i32 %24, 0
  br i1 %25, label %26, label %27

26:                                               ; preds = %17
  store i32 1, ptr %7, align 4, !tbaa !16
  br label %89

27:                                               ; preds = %17
  %28 = load ptr, ptr %4, align 8, !tbaa !6
  %29 = getelementptr inbounds nuw %struct.asn1_string_st, ptr %28, i32 0, i32 0
  %30 = load i32, ptr %29, align 8, !tbaa !20
  store i32 %30, ptr %7, align 4, !tbaa !16
  %31 = load ptr, ptr %4, align 8, !tbaa !6
  %32 = getelementptr inbounds nuw %struct.asn1_string_st, ptr %31, i32 0, i32 2
  %33 = load ptr, ptr %32, align 8, !tbaa !21
  %34 = getelementptr inbounds i8, ptr %33, i64 0
  %35 = load i8, ptr %34, align 1, !tbaa !19
  %36 = zext i8 %35 to i32
  store i32 %36, ptr %8, align 4, !tbaa !16
  %37 = load i32, ptr %7, align 4, !tbaa !16
  %38 = icmp eq i32 %37, 1
  br i1 %38, label %39, label %43

39:                                               ; preds = %27
  %40 = load i32, ptr %8, align 4, !tbaa !16
  %41 = icmp eq i32 %40, 0
  br i1 %41, label %42, label %43

42:                                               ; preds = %39
  store i32 0, ptr %9, align 4, !tbaa !16
  br label %43

43:                                               ; preds = %42, %39, %27
  %44 = load i32, ptr %9, align 4, !tbaa !16
  %45 = icmp ne i32 %44, 0
  br i1 %45, label %50, label %46

46:                                               ; preds = %43
  %47 = load i32, ptr %8, align 4, !tbaa !16
  %48 = icmp sgt i32 %47, 127
  br i1 %48, label %49, label %50

49:                                               ; preds = %46
  store i32 1, ptr %6, align 4, !tbaa !16
  store i8 0, ptr %12, align 1, !tbaa !19
  br label %85

50:                                               ; preds = %46, %43
  %51 = load i32, ptr %9, align 4, !tbaa !16
  %52 = icmp ne i32 %51, 0
  br i1 %52, label %53, label %84

53:                                               ; preds = %50
  %54 = load i32, ptr %8, align 4, !tbaa !16
  %55 = icmp sgt i32 %54, 128
  br i1 %55, label %56, label %57

56:                                               ; preds = %53
  store i32 1, ptr %6, align 4, !tbaa !16
  store i8 -1, ptr %12, align 1, !tbaa !19
  br label %83

57:                                               ; preds = %53
  %58 = load i32, ptr %8, align 4, !tbaa !16
  %59 = icmp eq i32 %58, 128
  br i1 %59, label %60, label %82

60:                                               ; preds = %57
  store i32 1, ptr %8, align 4, !tbaa !16
  br label %61

61:                                               ; preds = %78, %60
  %62 = load i32, ptr %8, align 4, !tbaa !16
  %63 = load ptr, ptr %4, align 8, !tbaa !6
  %64 = getelementptr inbounds nuw %struct.asn1_string_st, ptr %63, i32 0, i32 0
  %65 = load i32, ptr %64, align 8, !tbaa !20
  %66 = icmp slt i32 %62, %65
  br i1 %66, label %67, label %81

67:                                               ; preds = %61
  %68 = load ptr, ptr %4, align 8, !tbaa !6
  %69 = getelementptr inbounds nuw %struct.asn1_string_st, ptr %68, i32 0, i32 2
  %70 = load ptr, ptr %69, align 8, !tbaa !21
  %71 = load i32, ptr %8, align 4, !tbaa !16
  %72 = sext i32 %71 to i64
  %73 = getelementptr inbounds i8, ptr %70, i64 %72
  %74 = load i8, ptr %73, align 1, !tbaa !19
  %75 = icmp ne i8 %74, 0
  br i1 %75, label %76, label %77

76:                                               ; preds = %67
  store i32 1, ptr %6, align 4, !tbaa !16
  store i8 -1, ptr %12, align 1, !tbaa !19
  br label %81

77:                                               ; preds = %67
  br label %78

78:                                               ; preds = %77
  %79 = load i32, ptr %8, align 4, !tbaa !16
  %80 = add nsw i32 %79, 1
  store i32 %80, ptr %8, align 4, !tbaa !16
  br label %61, !llvm.loop !22

81:                                               ; preds = %76, %61
  br label %82

82:                                               ; preds = %81, %57
  br label %83

83:                                               ; preds = %82, %56
  br label %84

84:                                               ; preds = %83, %50
  br label %85

85:                                               ; preds = %84, %49
  %86 = load i32, ptr %6, align 4, !tbaa !16
  %87 = load i32, ptr %7, align 4, !tbaa !16
  %88 = add nsw i32 %87, %86
  store i32 %88, ptr %7, align 4, !tbaa !16
  br label %89

89:                                               ; preds = %85, %26
  %90 = load ptr, ptr %5, align 8, !tbaa !17
  %91 = icmp eq ptr %90, null
  br i1 %91, label %92, label %94

92:                                               ; preds = %89
  %93 = load i32, ptr %7, align 4, !tbaa !16
  store i32 %93, ptr %3, align 4
  store i32 1, ptr %13, align 4
  br label %195

94:                                               ; preds = %89
  %95 = load ptr, ptr %5, align 8, !tbaa !17
  %96 = load ptr, ptr %95, align 8, !tbaa !24
  store ptr %96, ptr %10, align 8, !tbaa !24
  %97 = load i32, ptr %6, align 4, !tbaa !16
  %98 = icmp ne i32 %97, 0
  br i1 %98, label %99, label %103

99:                                               ; preds = %94
  %100 = load i8, ptr %12, align 1, !tbaa !19
  %101 = load ptr, ptr %10, align 8, !tbaa !24
  %102 = getelementptr inbounds nuw i8, ptr %101, i32 1
  store ptr %102, ptr %10, align 8, !tbaa !24
  store i8 %100, ptr %101, align 1, !tbaa !19
  br label %103

103:                                              ; preds = %99, %94
  %104 = load ptr, ptr %4, align 8, !tbaa !6
  %105 = getelementptr inbounds nuw %struct.asn1_string_st, ptr %104, i32 0, i32 0
  %106 = load i32, ptr %105, align 8, !tbaa !20
  %107 = icmp eq i32 %106, 0
  br i1 %107, label %108, label %111

108:                                              ; preds = %103
  %109 = load ptr, ptr %10, align 8, !tbaa !24
  %110 = getelementptr inbounds nuw i8, ptr %109, i32 1
  store ptr %110, ptr %10, align 8, !tbaa !24
  store i8 0, ptr %109, align 1, !tbaa !19
  br label %188

111:                                              ; preds = %103
  %112 = load i32, ptr %9, align 4, !tbaa !16
  %113 = icmp ne i32 %112, 0
  br i1 %113, label %123, label %114

114:                                              ; preds = %111
  %115 = load ptr, ptr %10, align 8, !tbaa !24
  %116 = load ptr, ptr %4, align 8, !tbaa !6
  %117 = getelementptr inbounds nuw %struct.asn1_string_st, ptr %116, i32 0, i32 2
  %118 = load ptr, ptr %117, align 8, !tbaa !21
  %119 = load ptr, ptr %4, align 8, !tbaa !6
  %120 = getelementptr inbounds nuw %struct.asn1_string_st, ptr %119, i32 0, i32 0
  %121 = load i32, ptr %120, align 8, !tbaa !20
  %122 = zext i32 %121 to i64
  call void @llvm.memcpy.p0.p0.i64(ptr align 1 %115, ptr align 1 %118, i64 %122, i1 false)
  br label %187

123:                                              ; preds = %111
  %124 = load ptr, ptr %4, align 8, !tbaa !6
  %125 = getelementptr inbounds nuw %struct.asn1_string_st, ptr %124, i32 0, i32 2
  %126 = load ptr, ptr %125, align 8, !tbaa !21
  %127 = load ptr, ptr %4, align 8, !tbaa !6
  %128 = getelementptr inbounds nuw %struct.asn1_string_st, ptr %127, i32 0, i32 0
  %129 = load i32, ptr %128, align 8, !tbaa !20
  %130 = sext i32 %129 to i64
  %131 = getelementptr inbounds i8, ptr %126, i64 %130
  %132 = getelementptr inbounds i8, ptr %131, i64 -1
  store ptr %132, ptr %11, align 8, !tbaa !24
  %133 = load ptr, ptr %4, align 8, !tbaa !6
  %134 = getelementptr inbounds nuw %struct.asn1_string_st, ptr %133, i32 0, i32 0
  %135 = load i32, ptr %134, align 8, !tbaa !20
  %136 = sub nsw i32 %135, 1
  %137 = load ptr, ptr %10, align 8, !tbaa !24
  %138 = sext i32 %136 to i64
  %139 = getelementptr inbounds i8, ptr %137, i64 %138
  store ptr %139, ptr %10, align 8, !tbaa !24
  %140 = load ptr, ptr %4, align 8, !tbaa !6
  %141 = getelementptr inbounds nuw %struct.asn1_string_st, ptr %140, i32 0, i32 0
  %142 = load i32, ptr %141, align 8, !tbaa !20
  store i32 %142, ptr %8, align 4, !tbaa !16
  br label %143

143:                                              ; preds = %152, %123
  %144 = load ptr, ptr %11, align 8, !tbaa !24
  %145 = load i8, ptr %144, align 1, !tbaa !19
  %146 = icmp ne i8 %145, 0
  br i1 %146, label %150, label %147

147:                                              ; preds = %143
  %148 = load i32, ptr %8, align 4, !tbaa !16
  %149 = icmp sgt i32 %148, 1
  br label %150

150:                                              ; preds = %147, %143
  %151 = phi i1 [ false, %143 ], [ %149, %147 ]
  br i1 %151, label %152, label %159

152:                                              ; preds = %150
  %153 = load ptr, ptr %10, align 8, !tbaa !24
  %154 = getelementptr inbounds i8, ptr %153, i32 -1
  store ptr %154, ptr %10, align 8, !tbaa !24
  store i8 0, ptr %153, align 1, !tbaa !19
  %155 = load ptr, ptr %11, align 8, !tbaa !24
  %156 = getelementptr inbounds i8, ptr %155, i32 -1
  store ptr %156, ptr %11, align 8, !tbaa !24
  %157 = load i32, ptr %8, align 4, !tbaa !16
  %158 = add nsw i32 %157, -1
  store i32 %158, ptr %8, align 4, !tbaa !16
  br label %143, !llvm.loop !25

159:                                              ; preds = %150
  %160 = load ptr, ptr %11, align 8, !tbaa !24
  %161 = getelementptr inbounds i8, ptr %160, i32 -1
  store ptr %161, ptr %11, align 8, !tbaa !24
  %162 = load i8, ptr %160, align 1, !tbaa !19
  %163 = zext i8 %162 to i32
  %164 = xor i32 %163, 255
  %165 = add nsw i32 %164, 1
  %166 = trunc i32 %165 to i8
  %167 = load ptr, ptr %10, align 8, !tbaa !24
  %168 = getelementptr inbounds i8, ptr %167, i32 -1
  store ptr %168, ptr %10, align 8, !tbaa !24
  store i8 %166, ptr %167, align 1, !tbaa !19
  %169 = load i32, ptr %8, align 4, !tbaa !16
  %170 = add nsw i32 %169, -1
  store i32 %170, ptr %8, align 4, !tbaa !16
  br label %171

171:                                              ; preds = %183, %159
  %172 = load i32, ptr %8, align 4, !tbaa !16
  %173 = icmp sgt i32 %172, 0
  br i1 %173, label %174, label %186

174:                                              ; preds = %171
  %175 = load ptr, ptr %11, align 8, !tbaa !24
  %176 = getelementptr inbounds i8, ptr %175, i32 -1
  store ptr %176, ptr %11, align 8, !tbaa !24
  %177 = load i8, ptr %175, align 1, !tbaa !19
  %178 = zext i8 %177 to i32
  %179 = xor i32 %178, 255
  %180 = trunc i32 %179 to i8
  %181 = load ptr, ptr %10, align 8, !tbaa !24
  %182 = getelementptr inbounds i8, ptr %181, i32 -1
  store ptr %182, ptr %10, align 8, !tbaa !24
  store i8 %180, ptr %181, align 1, !tbaa !19
  br label %183

183:                                              ; preds = %174
  %184 = load i32, ptr %8, align 4, !tbaa !16
  %185 = add nsw i32 %184, -1
  store i32 %185, ptr %8, align 4, !tbaa !16
  br label %171, !llvm.loop !26

186:                                              ; preds = %171
  br label %187

187:                                              ; preds = %186, %114
  br label %188

188:                                              ; preds = %187, %108
  %189 = load i32, ptr %7, align 4, !tbaa !16
  %190 = load ptr, ptr %5, align 8, !tbaa !17
  %191 = load ptr, ptr %190, align 8, !tbaa !24
  %192 = sext i32 %189 to i64
  %193 = getelementptr inbounds i8, ptr %191, i64 %192
  store ptr %193, ptr %190, align 8, !tbaa !24
  %194 = load i32, ptr %7, align 4, !tbaa !16
  store i32 %194, ptr %3, align 4
  store i32 1, ptr %13, align 4
  br label %195

195:                                              ; preds = %188, %92, %16
  call void @llvm.lifetime.end.p0(i64 1, ptr %12) #8
  call void @llvm.lifetime.end.p0(i64 8, ptr %11) #8
  call void @llvm.lifetime.end.p0(i64 8, ptr %10) #8
  call void @llvm.lifetime.end.p0(i64 4, ptr %9) #8
  call void @llvm.lifetime.end.p0(i64 4, ptr %8) #8
  call void @llvm.lifetime.end.p0(i64 4, ptr %7) #8
  call void @llvm.lifetime.end.p0(i64 4, ptr %6) #8
  %196 = load i32, ptr %3, align 4
  ret i32 %196
}