; Function Attrs: nofree norecurse nosync nounwind memory(readwrite, inaccessiblemem: none) uwtable
define hidden i32 @i2c_ASN1_INTEGER(ptr noundef readonly captures(address_is_null) %0, ptr noundef captures(address_is_null) %1) local_unnamed_addr #3 {
  %3 = icmp eq ptr %0, null
  br i1 %3, label %68, label %4

4:                                                ; preds = %2
  %5 = load i32, ptr %0, align 8, !tbaa !14
  %6 = icmp eq i32 %5, 0
  br i1 %6, label %.thread, label %7

7:                                                ; preds = %4
  %8 = getelementptr inbounds nuw i8, ptr %0, i64 4
  %9 = load i32, ptr %8, align 4, !tbaa !6
  %10 = and i32 %9, 256
  %11 = getelementptr inbounds nuw i8, ptr %0, i64 8
  %12 = load ptr, ptr %11, align 8, !tbaa !15
  %13 = load i8, ptr %12, align 1, !tbaa !16
  %14 = icmp eq i32 %5, 1
  %15 = icmp eq i8 %13, 0
  %or.cond = select i1 %14, i1 %15, i1 false
  %spec.select = select i1 %or.cond, i32 0, i32 %10
  %16 = icmp ne i32 %spec.select, 0
  %17 = icmp sgt i8 %13, -1
  %or.cond3.not = select i1 %16, i1 true, i1 %17
  %not.or.cond3.not = xor i1 %or.cond3.not, true
  %.mux92 = zext i1 %not.or.cond3.not to i32
  br i1 %16, label %18, label %.loopexit94

18:                                               ; preds = %7
  %19 = icmp ugt i8 %13, -128
  br i1 %19, label %.loopexit94.thread, label %20

20:                                               ; preds = %18
  %21 = icmp eq i8 %13, -128
  %22 = icmp sgt i32 %5, 1
  %or.cond118 = and i1 %21, %22
  br i1 %or.cond118, label %.lr.ph.preheader, label %.loopexit94

.lr.ph.preheader:                                 ; preds = %20
  %wide.trip.count = zext nneg i32 %5 to i64
  br label %.lr.ph

23:                                               ; preds = %.lr.ph
  %indvars.iv.next = add nuw nsw i64 %indvars.iv, 1
  %exitcond.not = icmp eq i64 %indvars.iv.next, %wide.trip.count
  br i1 %exitcond.not, label %.loopexit94, label %.lr.ph, !llvm.loop !17

.lr.ph:                                           ; preds = %.lr.ph.preheader, %23
  %indvars.iv = phi i64 [ 1, %.lr.ph.preheader ], [ %indvars.iv.next, %23 ]
  %24 = getelementptr inbounds nuw i8, ptr %12, i64 %indvars.iv
  %25 = load i8, ptr %24, align 1, !tbaa !16
  %.not72 = icmp eq i8 %25, 0
  br i1 %.not72, label %23, label %.loopexit94

.loopexit94:                                      ; preds = %.lr.ph, %23, %7, %20
  %26 = phi i1 [ true, %20 ], [ %17, %7 ], [ %.not72, %23 ], [ %.not72, %.lr.ph ]
  %.165 = phi i32 [ 0, %20 ], [ %.mux92, %7 ], [ 1, %.lr.ph ], [ 0, %23 ]
  %.1 = phi i8 [ 0, %20 ], [ 0, %7 ], [ -1, %.lr.ph ], [ 0, %23 ]
  %27 = add nsw i32 %.165, %5
  %28 = icmp eq ptr %1, null
  br i1 %28, label %68, label %34

.loopexit94.thread:                               ; preds = %18
  %29 = add nsw i32 %5, 1
  %30 = icmp eq ptr %1, null
  br i1 %30, label %68, label %.thread127

.thread127:                                       ; preds = %.loopexit94.thread
  %31 = load ptr, ptr %1, align 8, !tbaa !19
  br label %36

.thread:                                          ; preds = %4
  %32 = icmp eq ptr %1, null
  br i1 %32, label %68, label %.thread130

.thread130:                                       ; preds = %.thread
  %33 = load ptr, ptr %1, align 8, !tbaa !19
  br label %43

34:                                               ; preds = %.loopexit94
  %35 = load ptr, ptr %1, align 8, !tbaa !19
  br i1 %26, label %40, label %36

36:                                               ; preds = %.thread127, %34
  %37 = phi ptr [ %31, %.thread127 ], [ %35, %34 ]
  %.1126129 = phi i8 [ -1, %.thread127 ], [ %.1, %34 ]
  %38 = phi i32 [ %29, %.thread127 ], [ %27, %34 ]
  %39 = getelementptr inbounds nuw i8, ptr %37, i64 1
  store i8 %.1126129, ptr %37, align 1, !tbaa !16
  %.pre = load i32, ptr %0, align 8, !tbaa !14
  br label %40

40:                                               ; preds = %36, %34
  %41 = phi i32 [ %.pre, %36 ], [ %5, %34 ]
  %.0638291 = phi i32 [ %38, %36 ], [ %27, %34 ]
  %.056 = phi ptr [ %39, %36 ], [ %35, %34 ]
  %42 = icmp eq i32 %41, 0
  br i1 %42, label %43, label %44

43:                                               ; preds = %.thread130, %40
  %.056136 = phi ptr [ %33, %.thread130 ], [ %.056, %40 ]
  %.0638291135 = phi i32 [ 1, %.thread130 ], [ %.0638291, %40 ]
  store i8 0, ptr %.056136, align 1, !tbaa !16
  br label %.loopexit

44:                                               ; preds = %40
  %.not74 = icmp eq i32 %spec.select, 0
  %45 = getelementptr inbounds nuw i8, ptr %0, i64 8
  %46 = load ptr, ptr %45, align 8, !tbaa !15
  br i1 %.not74, label %47, label %49

47:                                               ; preds = %44
  %48 = zext i32 %41 to i64
  tail call void @llvm.memcpy.p0.p0.i64(ptr align 1 %.056, ptr align 1 %46, i64 %48, i1 false)
  br label %.loopexit

49:                                               ; preds = %44
  %50 = sext i32 %41 to i64
  %51 = getelementptr inbounds i8, ptr %46, i64 %50
  %52 = getelementptr i8, ptr %.056, i64 %50
  %.054102 = getelementptr inbounds i8, ptr %51, i64 -1
  %.157103 = getelementptr i8, ptr %52, i64 -1
  %53 = load i8, ptr %.054102, align 1, !tbaa !16
  %.not75104 = icmp eq i8 %53, 0
  %54 = icmp sgt i32 %41, 1
  %55 = and i1 %.not75104, %54
  br i1 %55, label %.lr.ph108, label %._crit_edge

.lr.ph108:                                        ; preds = %49, %.lr.ph108
  %.157107 = phi ptr [ %.157, %.lr.ph108 ], [ %.157103, %49 ]
  %.054106 = phi ptr [ %.054, %.lr.ph108 ], [ %.054102, %49 ]
  %.161105 = phi i32 [ %56, %.lr.ph108 ], [ %41, %49 ]
  store i8 0, ptr %.157107, align 1, !tbaa !16
  %56 = add nsw i32 %.161105, -1
  %.054 = getelementptr inbounds i8, ptr %.054106, i64 -1
  %.157 = getelementptr i8, ptr %.157107, i64 -1
  %57 = load i8, ptr %.054, align 1, !tbaa !16
  %.not75 = icmp eq i8 %57, 0
  %58 = icmp samesign ugt i32 %.161105, 2
  %59 = select i1 %.not75, i1 %58, i1 false
  br i1 %59, label %.lr.ph108, label %._crit_edge, !llvm.loop !20

._crit_edge:                                      ; preds = %.lr.ph108, %49
  %.161.lcssa = phi i32 [ %41, %49 ], [ %56, %.lr.ph108 ]
  %.054.lcssa = phi ptr [ %.054102, %49 ], [ %.054, %.lr.ph108 ]
  %.157.lcssa = phi ptr [ %.157103, %49 ], [ %.157, %.lr.ph108 ]
  %.lcssa = phi i8 [ %53, %49 ], [ %57, %.lr.ph108 ]
  %60 = sub i8 0, %.lcssa
  store i8 %60, ptr %.157.lcssa, align 1, !tbaa !16
  %61 = icmp sgt i32 %.161.lcssa, 1
  br i1 %61, label %.lr.ph117, label %.loopexit

.lr.ph117:                                        ; preds = %._crit_edge, %.lr.ph117
  %.054.pn115 = phi ptr [ %.155, %.lr.ph117 ], [ %.054.lcssa, %._crit_edge ]
  %.157.pn114 = phi ptr [ %.2, %.lr.ph117 ], [ %.157.lcssa, %._crit_edge ]
  %.262.in113 = phi i32 [ %.262, %.lr.ph117 ], [ %.161.lcssa, %._crit_edge ]
  %.2 = getelementptr inbounds i8, ptr %.157.pn114, i64 -1
  %.155 = getelementptr inbounds i8, ptr %.054.pn115, i64 -1
  %.262 = add nsw i32 %.262.in113, -1
  %62 = load i8, ptr %.155, align 1, !tbaa !16
  %63 = xor i8 %62, -1
  store i8 %63, ptr %.2, align 1, !tbaa !16
  %64 = icmp samesign ugt i32 %.262.in113, 2
  br i1 %64, label %.lr.ph117, label %.loopexit, !llvm.loop !21

.loopexit:                                        ; preds = %.lr.ph117, %._crit_edge, %47, %43
  %.0638291134 = phi i32 [ %.0638291, %._crit_edge ], [ %.0638291, %47 ], [ %.0638291135, %43 ], [ %.0638291, %.lr.ph117 ]
  %65 = load ptr, ptr %1, align 8, !tbaa !19
  %66 = sext i32 %.0638291134 to i64
  %67 = getelementptr inbounds i8, ptr %65, i64 %66
  store ptr %67, ptr %1, align 8, !tbaa !19
  br label %68

68:                                               ; preds = %.loopexit94.thread, %.thread, %.loopexit94, %2, %.loopexit
  %.066 = phi i32 [ %.0638291134, %.loopexit ], [ 0, %2 ], [ %27, %.loopexit94 ], [ 1, %.thread ], [ %29, %.loopexit94.thread ]
  ret i32 %.066
}